target datalayout = "e-m:e-p270:32:32-p271:32:32-p272:64:64-i64:64-i128:128-f80:128-n8:16:32:64-S128"
target triple = "x86_64-unknown-linux-gnu"

%struct.PCIHostDeviceAddress = type { i32, i32, i32, i32 }

@.str.9 = private unnamed_addr constant [41 x i8] c"../qemu/hw/core/qdev-properties-system.c\00", align 1
@__const.get_pci_host_devaddr.buffer = private unnamed_addr constant [13 x i8] c"ffff:ff:ff.f\00", align 1
@.str.71 = private unnamed_addr constant [19 x i8] c"%04x:%02x:%02x.%0d\00", align 1
@.str.72 = private unnamed_addr constant [25 x i8] c"rc == sizeof(buffer) - 1\00", align 1
@__PRETTY_FUNCTION__.get_pci_host_devaddr = private unnamed_addr constant [79 x i8] c"void get_pci_host_devaddr(Object *, Visitor *, const char *, void *, Error **)\00", align 1

; Function Attrs: nounwind sspstrong uwtable
define internal void @get_pci_host_devaddr(ptr noundef %obj, ptr noundef %v, ptr noundef %name, ptr noundef %opaque, ptr noundef %errp) #0 {
entry:
  %obj.addr = alloca ptr, align 8
  %v.addr = alloca ptr, align 8
  %name.addr = alloca ptr, align 8
  %opaque.addr = alloca ptr, align 8
  %errp.addr = alloca ptr, align 8
  %prop = alloca ptr, align 8
  %addr = alloca ptr, align 8
  %buffer = alloca [13 x i8], align 1
  %p = alloca ptr, align 8
  %rc = alloca i32, align 4
  store ptr %obj, ptr %obj.addr, align 8
  store ptr %v, ptr %v.addr, align 8
  store ptr %name, ptr %name.addr, align 8
  store ptr %opaque, ptr %opaque.addr, align 8
  store ptr %errp, ptr %errp.addr, align 8
  %0 = load ptr, ptr %opaque.addr, align 8
  store ptr %0, ptr %prop, align 8
  %1 = load ptr, ptr %obj.addr, align 8
  %2 = load ptr, ptr %prop, align 8
  %call = call ptr @object_field_prop_ptr(ptr noundef %1, ptr noundef %2)
  store ptr %call, ptr %addr, align 8
  call void @llvm.memcpy.p0.p0.i64(ptr align 1 %buffer, ptr align 1 @__const.get_pci_host_devaddr.buffer, i64 13, i1 false)
  %arraydecay = getelementptr inbounds [13 x i8], ptr %buffer, i64 0, i64 0
  store ptr %arraydecay, ptr %p, align 8
  store i32 0, ptr %rc, align 4
  %3 = load ptr, ptr %addr, align 8
  %domain = getelementptr inbounds %struct.PCIHostDeviceAddress, ptr %3, i32 0, i32 0
  %4 = load i32, ptr %domain, align 4
  %not = xor i32 %4, -1
  %tobool = icmp ne i32 %not, 0
  br i1 %tobool, label %if.then, label %lor.lhs.false

lor.lhs.false:                                    ; preds = %entry
  %5 = load ptr, ptr %addr, align 8
  %bus = getelementptr inbounds %struct.PCIHostDeviceAddress, ptr %5, i32 0, i32 1
  %6 = load i32, ptr %bus, align 4
  %not1 = xor i32 %6, -1
  %tobool2 = icmp ne i32 %not1, 0
  br i1 %tobool2, label %if.then, label %lor.lhs.false3

lor.lhs.false3:                                   ; preds = %lor.lhs.false
  %7 = load ptr, ptr %addr, align 8
  %slot = getelementptr inbounds %struct.PCIHostDeviceAddress, ptr %7, i32 0, i32 2
  %8 = load i32, ptr %slot, align 4
  %not4 = xor i32 %8, -1
  %tobool5 = icmp ne i32 %not4, 0
  br i1 %tobool5, label %if.then, label %lor.lhs.false6

lor.lhs.false6:                                   ; preds = %lor.lhs.false3
  %9 = load ptr, ptr %addr, align 8
  %function = getelementptr inbounds %struct.PCIHostDeviceAddress, ptr %9, i32 0, i32 3
  %10 = load i32, ptr %function, align 4
  %not7 = xor i32 %10, -1
  %tobool8 = icmp ne i32 %not7, 0
  br i1 %tobool8, label %if.then, label %if.end17

if.then:                                          ; preds = %lor.lhs.false6, %lor.lhs.false3, %lor.lhs.false, %entry
  %arraydecay9 = getelementptr inbounds [13 x i8], ptr %buffer, i64 0, i64 0
  %11 = load ptr, ptr %addr, align 8
  %domain10 = getelementptr inbounds %struct.PCIHostDeviceAddress, ptr %11, i32 0, i32 0
  %12 = load i32, ptr %domain10, align 4
  %13 = load ptr, ptr %addr, align 8
  %bus11 = getelementptr inbounds %struct.PCIHostDeviceAddress, ptr %13, i32 0, i32 1
  %14 = load i32, ptr %bus11, align 4
  %15 = load ptr, ptr %addr, align 8
  %slot12 = getelementptr inbounds %struct.PCIHostDeviceAddress, ptr %15, i32 0, i32 2
  %16 = load i32, ptr %slot12, align 4
  %17 = load ptr, ptr %addr, align 8
  %function13 = getelementptr inbounds %struct.PCIHostDeviceAddress, ptr %17, i32 0, i32 3
  %18 = load i32, ptr %function13, align 4
  %call14 = call i32 (ptr, i64, ptr, ...) @snprintf(ptr noundef %arraydecay9, i64 noundef 13, ptr noundef @.str.71, i32 noundef %12, i32 noundef %14, i32 noundef %16, i32 noundef %18) #7
  store i32 %call14, ptr %rc, align 4
  %19 = load i32, ptr %rc, align 4
  %conv = sext i32 %19 to i64
  %cmp = icmp eq i64 %conv, 12
  br i1 %cmp, label %if.then16, label %if.else

if.then16:                                        ; preds = %if.then
  br label %if.end

if.else:                                          ; preds = %if.then
  call void @__assert_fail(ptr noundef @.str.72, ptr noundef @.str.9, i32 noundef 854, ptr noundef @__PRETTY_FUNCTION__.get_pci_host_devaddr) #9
  unreachable

if.end:                                           ; preds = %if.then16
  br label %if.end17

if.end17:                                         ; preds = %if.end, %lor.lhs.false6
  %20 = load ptr, ptr %v.addr, align 8
  %21 = load ptr, ptr %name.addr, align 8
  %22 = load ptr, ptr %errp.addr, align 8
  %call18 = call zeroext i1 @visit_type_str(ptr noundef %20, ptr noundef %21, ptr noundef %p, ptr noundef %22)
  ret void
}