; Function Attrs: nounwind sspstrong uwtable
define internal void @get_pci_host_devaddr(ptr noundef %obj, ptr noundef %v, ptr noundef %name, ptr noundef %opaque, ptr noundef %errp) #0 {
entry:
  %buffer = alloca [13 x i8], align 1
  %p = alloca ptr, align 8
  %call = tail call ptr @object_field_prop_ptr(ptr noundef %obj, ptr noundef %opaque) #10
  call void @llvm.memcpy.p0.p0.i64(ptr noundef nonnull align 1 dereferenceable(13) %buffer, ptr noundef nonnull align 1 dereferenceable(13) @__const.get_pci_host_devaddr.buffer, i64 13, i1 false)
  store ptr %buffer, ptr %p, align 8
  %0 = load i32, ptr %call, align 4
  %tobool.not = icmp eq i32 %0, -1
  %bus = getelementptr inbounds nuw i8, ptr %call, i64 4
  %1 = load i32, ptr %bus, align 4
  %tobool2.not = icmp eq i32 %1, -1
  %or.cond = select i1 %tobool.not, i1 %tobool2.not, i1 false
  br i1 %or.cond, label %lor.lhs.false3, label %if.then

lor.lhs.false3:                                   ; preds = %entry
  %slot = getelementptr inbounds nuw i8, ptr %call, i64 8
  %2 = load i32, ptr %slot, align 4
  %tobool5.not = icmp eq i32 %2, -1
  br i1 %tobool5.not, label %lor.lhs.false6, label %if.then

lor.lhs.false6:                                   ; preds = %lor.lhs.false3
  %function = getelementptr inbounds nuw i8, ptr %call, i64 12
  %3 = load i32, ptr %function, align 4
  %tobool8.not = icmp eq i32 %3, -1
  br i1 %tobool8.not, label %if.end17, label %if.then

if.then:                                          ; preds = %entry, %lor.lhs.false6, %lor.lhs.false3
  %4 = phi i32 [ -1, %lor.lhs.false6 ], [ -1, %lor.lhs.false3 ], [ %1, %entry ]
  %slot12 = getelementptr inbounds nuw i8, ptr %call, i64 8
  %5 = load i32, ptr %slot12, align 4
  %function13 = getelementptr inbounds nuw i8, ptr %call, i64 12
  %6 = load i32, ptr %function13, align 4
  %call14 = call i32 (ptr, i64, ptr, ...) @snprintf(ptr noundef nonnull dereferenceable(1) %buffer, i64 noundef 13, ptr noundef nonnull @.str.71, i32 noundef %0, i32 noundef %4, i32 noundef %5, i32 noundef %6) #10
  %cmp = icmp eq i32 %call14, 12
  br i1 %cmp, label %if.end17, label %if.else

if.else:                                          ; preds = %if.then
  call void @__assert_fail(ptr noundef nonnull @.str.72, ptr noundef nonnull @.str.9, i32 noundef 854, ptr noundef nonnull @__PRETTY_FUNCTION__.get_pci_host_devaddr) #12
  unreachable

if.end17:                                         ; preds = %if.then, %lor.lhs.false6
  %call18 = call zeroext i1 @visit_type_str(ptr noundef %v, ptr noundef %name, ptr noundef nonnull %p, ptr noundef %errp) #10
  ret void
}